; Function Attrs: mustprogress nofree norecurse nosync nounwind willreturn memory(read, inaccessiblemem: none) uwtable
define dso_local noundef zeroext i1 @_ZNK25cmInstallCommandArguments20HasNamelinkComponentEv(ptr noundef nonnull readonly align 8 captures(none) dereferenceable(440) %0) local_unnamed_addr #6 align 2 {
  br label %tailrecurse

tailrecurse:                                      ; preds = %4, %1
  %.tr = phi ptr [ %0, %1 ], [ %6, %4 ]
  %2 = getelementptr inbounds nuw i8, ptr %.tr, i64 184
  %3 = load i64, ptr %2, align 8, !tbaa !10
  %.not3.not.not.not = icmp ne i64 %3, 0
  br i1 %.not3.not.not.not, label %7, label %4

4:                                                ; preds = %tailrecurse
  %5 = getelementptr inbounds nuw i8, ptr %.tr, i64 400
  %6 = load ptr, ptr %5, align 8, !tbaa !41
  %.not = icmp eq ptr %6, null
  br i1 %.not, label %7, label %tailrecurse

7:                                                ; preds = %4, %tailrecurse
  ret i1 %.not3.not.not.not
}